; Function Attrs: mustprogress noreturn uwtable
define void @_ZN2cv4gapi3wip4draw12FTTextRenderC2ERKNSt7__cxx1112basic_stringIcSt11char_traitsIcESaIcEEE(ptr noundef nonnull align 8 captures(none) dereferenceable(16) initializes((0, 16)) %0, ptr nonnull readnone align 8 captures(none) %1) unnamed_addr #3 align 2 personality ptr @__gxx_personality_v0 {
  %3 = alloca %"class.std::runtime_error", align 8
  tail call void @llvm.memset.p0.i64(ptr noundef nonnull align 8 dereferenceable(16) %0, i8 0, i64 16, i1 false)
  call void @llvm.lifetime.start.p0(i64 16, ptr nonnull %3) #9
  invoke void @_ZNSt13runtime_errorC1EPKc(ptr noundef nonnull align 8 dereferenceable(16) %3, ptr noundef nonnull @.str)
          to label %4 unwind label %6

4:                                                ; preds = %2
  invoke void @_ZN2cv4util11throw_errorISt13runtime_errorEEvOT_(ptr noundef nonnull align 8 dereferenceable(16) %3) #10
          to label %5 unwind label %8

5:                                                ; preds = %4
  unreachable

6:                                                ; preds = %2
  %7 = landingpad { ptr, i32 }
          cleanup
  br label %10

8:                                                ; preds = %4
  %9 = landingpad { ptr, i32 }
          cleanup
  call void @_ZNSt13runtime_errorD1Ev(ptr noundef nonnull align 8 dereferenceable(16) %3) #9
  br label %10

10:                                               ; preds = %8, %6
  %.pn = phi { ptr, i32 } [ %9, %8 ], [ %7, %6 ]
  call void @llvm.lifetime.end.p0(i64 16, ptr nonnull %3) #9
  %11 = getelementptr inbounds nuw i8, ptr %0, i64 8
  %12 = load ptr, ptr %11, align 8, !tbaa !3
  %.not.i.i = icmp eq ptr %12, null
  br i1 %.not.i.i, label %_ZNSt12__shared_ptrIN2cv4gapi3wip4draw12FTTextRender4PrivELN9__gnu_cxx12_Lock_policyE2EED2Ev.exit, label %13

13:                                               ; preds = %10
  %14 = getelementptr inbounds nuw i8, ptr %12, i64 8
  %15 = load atomic i64, ptr %14 acquire, align 8
  %16 = icmp eq i64 %15, 4294967297
  %17 = trunc i64 %15 to i32
  br i1 %16, label %18, label %26

18:                                               ; preds = %13
  store i32 0, ptr %14, align 8, !tbaa !9
  %19 = getelementptr inbounds nuw i8, ptr %12, i64 12
  store i32 0, ptr %19, align 4, !tbaa !12
  %20 = load ptr, ptr %12, align 8, !tbaa !13
  %21 = getelementptr inbounds nuw i8, ptr %20, i64 16
  %22 = load ptr, ptr %21, align 8
  call void %22(ptr noundef nonnull align 8 dereferenceable(16) %12) #9
  %23 = load ptr, ptr %12, align 8, !tbaa !13
  %24 = getelementptr inbounds nuw i8, ptr %23, i64 24
  %25 = load ptr, ptr %24, align 8
  call void %25(ptr noundef nonnull align 8 dereferenceable(16) %12) #9
  br label %_ZNSt12__shared_ptrIN2cv4gapi3wip4draw12FTTextRender4PrivELN9__gnu_cxx12_Lock_policyE2EED2Ev.exit

26:                                               ; preds = %13
  %27 = load i8, ptr @__libc_single_threaded, align 1, !tbaa !15
  %.not.i.i.i = icmp eq i8 %27, 0
  br i1 %.not.i.i.i, label %30, label %28

28:                                               ; preds = %26
  %29 = add nsw i32 %17, -1
  store i32 %29, ptr %14, align 4, !tbaa !16
  br label %_ZN9__gnu_cxx27__exchange_and_add_dispatchEPii.exit.i.i.i

30:                                               ; preds = %26
  %31 = atomicrmw volatile add ptr %14, i32 -1 acq_rel, align 4
  br label %_ZN9__gnu_cxx27__exchange_and_add_dispatchEPii.exit.i.i.i

_ZN9__gnu_cxx27__exchange_and_add_dispatchEPii.exit.i.i.i: ; preds = %30, %28
  %.0.i.i.i.i = phi i32 [ %17, %28 ], [ %31, %30 ]
  %32 = icmp eq i32 %.0.i.i.i.i, 1
  br i1 %32, label %33, label %_ZNSt12__shared_ptrIN2cv4gapi3wip4draw12FTTextRender4PrivELN9__gnu_cxx12_Lock_policyE2EED2Ev.exit, !prof !17

33:                                               ; preds = %_ZN9__gnu_cxx27__exchange_and_add_dispatchEPii.exit.i.i.i
  call void @_ZNSt16_Sp_counted_baseILN9__gnu_cxx12_Lock_policyE2EE24_M_release_last_use_coldEv(ptr noundef nonnull align 8 dereferenceable(16) %12) #9
  br label %_ZNSt12__shared_ptrIN2cv4gapi3wip4draw12FTTextRender4PrivELN9__gnu_cxx12_Lock_policyE2EED2Ev.exit

_ZNSt12__shared_ptrIN2cv4gapi3wip4draw12FTTextRender4PrivELN9__gnu_cxx12_Lock_policyE2EED2Ev.exit: ; preds = %10, %18, %_ZN9__gnu_cxx27__exchange_and_add_dispatchEPii.exit.i.i.i, %33
  resume { ptr, i32 } %.pn
}